; ModuleID = '14/1280.c'
source_filename = "14/1280.c"
target datalayout = "e-m:e-p270:32:32-p271:32:32-p272:64:64-i64:64-f80:128-n8:16:32:64-S128"
target triple = "x86_64-pc-linux-gnu"

%struct.student = type { i32, i32, i32, i32, %struct.student* }

@.str = private unnamed_addr constant [4 x i8] c"%d\0A\00", align 1
@.str.1 = private unnamed_addr constant [7 x i8] c"%d%d%d\00", align 1
@.str.2 = private unnamed_addr constant [7 x i8] c"%d %d\0A\00", align 1

; Function Attrs: noinline nounwind uwtable
define dso_local void @main() #0 {
  %1 = alloca %struct.student*, align 8
  %2 = alloca %struct.student*, align 8
  %3 = alloca %struct.student*, align 8
  %4 = alloca %struct.student*, align 8
  %5 = alloca i32, align 4
  %6 = alloca i32, align 4
  %7 = alloca i32, align 4
  store i32 0, i32* %6, align 4
  store i32 0, i32* %7, align 4
  %8 = call i32 (i8*, ...) @__isoc99_scanf(i8* getelementptr inbounds ([4 x i8], [4 x i8]* @.str, i64 0, i64 0), i32* %5)
  %9 = call noalias i8* @malloc(i64 100) #3
  %10 = bitcast i8* %9 to %struct.student*
  store %struct.student* %10, %struct.student** %1, align 8
  store %struct.student* %10, %struct.student** %3, align 8
  store %struct.student* %10, %struct.student** %2, align 8
  store i32 0, i32* %6, align 4
  br label %11

11:                                               ; preds = %37, %0
  %12 = load i32, i32* %6, align 4
  %13 = load i32, i32* %5, align 4
  %14 = icmp slt i32 %12, %13
  br i1 %14, label %15, label %40

15:                                               ; preds = %11
  %16 = load %struct.student*, %struct.student** %2, align 8
  store %struct.student* %16, %struct.student** %3, align 8
  %17 = load %struct.student*, %struct.student** %2, align 8
  %18 = getelementptr inbounds %struct.student, %struct.student* %17, i32 0, i32 0
  %19 = load %struct.student*, %struct.student** %2, align 8
  %20 = getelementptr inbounds %struct.student, %struct.student* %19, i32 0, i32 1
  %21 = load %struct.student*, %struct.student** %2, align 8
  %22 = getelementptr inbounds %struct.student, %struct.student* %21, i32 0, i32 2
  %23 = call i32 (i8*, ...) @__isoc99_scanf(i8* getelementptr inbounds ([7 x i8], [7 x i8]* @.str.1, i64 0, i64 0), i32* %18, i32* %20, i32* %22)
  %24 = load %struct.student*, %struct.student** %2, align 8
  %25 = getelementptr inbounds %struct.student, %struct.student* %24, i32 0, i32 1
  %26 = load i32, i32* %25, align 4
  %27 = load %struct.student*, %struct.student** %2, align 8
  %28 = getelementptr inbounds %struct.student, %struct.student* %27, i32 0, i32 2
  %29 = load i32, i32* %28, align 8
  %30 = add nsw i32 %26, %29
  %31 = load %struct.student*, %struct.student** %2, align 8
  %32 = getelementptr inbounds %struct.student, %struct.student* %31, i32 0, i32 3
  store i32 %30, i32* %32, align 4
  %33 = call noalias i8* @malloc(i64 100) #3
  %34 = bitcast i8* %33 to %struct.student*
  store %struct.student* %34, %struct.student** %2, align 8
  %35 = load %struct.student*, %struct.student** %3, align 8
  %36 = getelementptr inbounds %struct.student, %struct.student* %35, i32 0, i32 4
  store %struct.student* %34, %struct.student** %36, align 8
  br label %37

37:                                               ; preds = %15
  %38 = load i32, i32* %6, align 4
  %39 = add nsw i32 %38, 1
  store i32 %39, i32* %6, align 4
  br label %11

40:                                               ; preds = %11
  %41 = load %struct.student*, %struct.student** %1, align 8
  %42 = load %struct.student*, %struct.student** %3, align 8
  %43 = getelementptr inbounds %struct.student, %struct.student* %42, i32 0, i32 4
  store %struct.student* %41, %struct.student** %43, align 8
  %44 = load %struct.student*, %struct.student** %1, align 8
  store %struct.student* %44, %struct.student** %2, align 8
  store i32 0, i32* %6, align 4
  br label %45

45:                                               ; preds = %110, %40
  %46 = load i32, i32* %7, align 4
  %47 = icmp eq i32 %46, 3
  br i1 %47, label %48, label %49

48:                                               ; preds = %45
  br label %118

49:                                               ; preds = %45
  %50 = load %struct.student*, %struct.student** %2, align 8
  store %struct.student* %50, %struct.student** %1, align 8
  %51 = load %struct.student*, %struct.student** %2, align 8
  store %struct.student* %51, %struct.student** %4, align 8
  %52 = load %struct.student*, %struct.student** %1, align 8
  %53 = getelementptr inbounds %struct.student, %struct.student* %52, i32 0, i32 4
  %54 = load %struct.student*, %struct.student** %53, align 8
  store %struct.student* %54, %struct.student** %2, align 8
  br label %55

55:                                               ; preds = %88, %49
  %56 = load %struct.student*, %struct.student** %2, align 8
  %57 = load %struct.student*, %struct.student** %1, align 8
  %58 = icmp ne %struct.student* %56, %57
  br i1 %58, label %59, label %92

59:                                               ; preds = %55
  %60 = load %struct.student*, %struct.student** %2, align 8
  %61 = getelementptr inbounds %struct.student, %struct.student* %60, i32 0, i32 3
  %62 = load i32, i32* %61, align 4
  %63 = load %struct.student*, %struct.student** %4, align 8
  %64 = getelementptr inbounds %struct.student, %struct.student* %63, i32 0, i32 3
  %65 = load i32, i32* %64, align 4
  %66 = icmp sgt i32 %62, %65
  br i1 %66, label %67, label %69

67:                                               ; preds = %59
  %68 = load %struct.student*, %struct.student** %2, align 8
  store %struct.student* %68, %struct.student** %4, align 8
  br label %88

69:                                               ; preds = %59
  %70 = load %struct.student*, %struct.student** %2, align 8
  %71 = getelementptr inbounds %struct.student, %struct.student* %70, i32 0, i32 3
  %72 = load i32, i32* %71, align 4
  %73 = load %struct.student*, %struct.student** %4, align 8
  %74 = getelementptr inbounds %struct.student, %struct.student* %73, i32 0, i32 3
  %75 = load i32, i32* %74, align 4
  %76 = icmp eq i32 %72, %75
  br i1 %76, label %77, label %87

77:                                               ; preds = %69
  %78 = load %struct.student*, %struct.student** %2, align 8
  %79 = getelementptr inbounds %struct.student, %struct.student* %78, i32 0, i32 0
  %80 = load i32, i32* %79, align 8
  %81 = load %struct.student*, %struct.student** %4, align 8
  %82 = getelementptr inbounds %struct.student, %struct.student* %81, i32 0, i32 0
  %83 = load i32, i32* %82, align 8
  %84 = icmp slt i32 %80, %83
  br i1 %84, label %85, label %87

85:                                               ; preds = %77
  %86 = load %struct.student*, %struct.student** %2, align 8
  store %struct.student* %86, %struct.student** %4, align 8
  br label %87

87:                                               ; preds = %85, %77, %69
  br label %88

88:                                               ; preds = %87, %67
  %89 = load %struct.student*, %struct.student** %2, align 8
  %90 = getelementptr inbounds %struct.student, %struct.student* %89, i32 0, i32 4
  %91 = load %struct.student*, %struct.student** %90, align 8
  store %struct.student* %91, %struct.student** %2, align 8
  br label %55

92:                                               ; preds = %55
  %93 = load %struct.student*, %struct.student** %4, align 8
  %94 = getelementptr inbounds %struct.student, %struct.student* %93, i32 0, i32 0
  %95 = load i32, i32* %94, align 8
  %96 = load %struct.student*, %struct.student** %4, align 8
  %97 = getelementptr inbounds %struct.student, %struct.student* %96, i32 0, i32 3
  %98 = load i32, i32* %97, align 4
  %99 = call i32 (i8*, ...) @printf(i8* getelementptr inbounds ([7 x i8], [7 x i8]* @.str.2, i64 0, i64 0), i32 %95, i32 %98)
  br label %100

100:                                              ; preds = %106, %92
  %101 = load %struct.student*, %struct.student** %2, align 8
  %102 = getelementptr inbounds %struct.student, %struct.student* %101, i32 0, i32 4
  %103 = load %struct.student*, %struct.student** %102, align 8
  %104 = load %struct.student*, %struct.student** %4, align 8
  %105 = icmp ne %struct.student* %103, %104
  br i1 %105, label %106, label %110

106:                                              ; preds = %100
  %107 = load %struct.student*, %struct.student** %2, align 8
  %108 = getelementptr inbounds %struct.student, %struct.student* %107, i32 0, i32 4
  %109 = load %struct.student*, %struct.student** %108, align 8
  store %struct.student* %109, %struct.student** %2, align 8
  br label %100

110:                                              ; preds = %100
  %111 = load %struct.student*, %struct.student** %4, align 8
  %112 = getelementptr inbounds %struct.student, %struct.student* %111, i32 0, i32 4
  %113 = load %struct.student*, %struct.student** %112, align 8
  %114 = load %struct.student*, %struct.student** %2, align 8
  %115 = getelementptr inbounds %struct.student, %struct.student* %114, i32 0, i32 4
  store %struct.student* %113, %struct.student** %115, align 8
  %116 = load i32, i32* %7, align 4
  %117 = add nsw i32 %116, 1
  store i32 %117, i32* %7, align 4
  br label %45

118:                                              ; preds = %48
  ret void
}

declare dso_local i32 @__isoc99_scanf(i8*, ...) #1

; Function Attrs: nounwind
declare dso_local noalias i8* @malloc(i64) #2

declare dso_local i32 @printf(i8*, ...) #1


!llvm.module.flags = !{!0}
!llvm.ident = !{!1}

!0 = !{i32 1, !"wchar_size", i32 4}
!1 = !{!"clang version 10.0.0-4ubuntu1 "}
